; Function Attrs: mustprogress uwtable
define internal void @_ZN9grpc_core12_GLOBAL__N_116XdsWrrLocalityLb14ShutdownLockedEv(ptr noundef nonnull align 8 dereferenceable(64) %this) unnamed_addr #3 align 2 personality ptr @__gxx_personality_v0 {
entry:
  %0 = load atomic i8, ptr getelementptr inbounds (%"class.grpc_core::TraceFlag", ptr @_ZN9grpc_core30grpc_xds_wrr_locality_lb_traceE, i64 0, i32 2, i32 0, i32 0) monotonic, align 8
  %1 = and i8 %0, 1
  %tobool.i.i.i.not = icmp eq i8 %1, 0
  br i1 %tobool.i.i.i.not, label %if.end, label %if.then

if.then:                                          ; preds = %entry
  tail call void (ptr, i32, i32, ptr, ...) @gpr_log(ptr noundef nonnull @.str.12, i32 noundef 147, i32 noundef 1, ptr noundef nonnull @.str.32, ptr noundef nonnull %this)
  br label %if.end

if.end:                                           ; preds = %if.then, %entry
  %child_policy_ = getelementptr inbounds i8, ptr %this, i64 56
  %2 = load ptr, ptr %child_policy_, align 8
  %cmp.i.i.not = icmp eq ptr %2, null
  br i1 %cmp.i.i.not, label %if.end9, label %if.then3

if.then3:                                         ; preds = %if.end
  %interested_parties_.i = getelementptr inbounds i8, ptr %2, i64 32
  %3 = load ptr, ptr %interested_parties_.i, align 8
  %interested_parties_.i1 = getelementptr inbounds i8, ptr %this, i64 32
  %4 = load ptr, ptr %interested_parties_.i1, align 8
  tail call void @_Z32grpc_pollset_set_del_pollset_setP16grpc_pollset_setS0_(ptr noundef %3, ptr noundef %4)
  %5 = load ptr, ptr %child_policy_, align 8
  store ptr null, ptr %child_policy_, align 8
  %tobool.not.i.i = icmp eq ptr %5, null
  br i1 %tobool.not.i.i, label %if.end9, label %if.then.i.i

if.then.i.i:                                      ; preds = %if.then3
  %vtable.i.i.i = load ptr, ptr %5, align 8
  %6 = load ptr, ptr %vtable.i.i.i, align 8
  invoke void %6(ptr noundef nonnull align 8 dereferenceable(56) %5)
          to label %if.end9 unwind label %terminate.lpad.i.i

terminate.lpad.i.i:                               ; preds = %if.then.i.i
  %7 = landingpad { ptr, i32 }
          catch ptr null
  %8 = extractvalue { ptr, i32 } %7, 0
  tail call void @__clang_call_terminate(ptr %8) #21
  unreachable

if.end9:                                          ; preds = %if.then.i.i, %if.then3, %if.end
  ret void
}